target datalayout = "e-m:e-p270:32:32-p271:32:32-p272:64:64-i64:64-i128:128-f80:128-n8:16:32:64-S128"
target triple = "x86_64-pc-linux-gnu"

%"class.vcg::Point3" = type { [3 x float] }
%"class.vcg::face::NormalAbs" = type { %"class.vcg::Arity3.base", %"class.vcg::Point3" }
%"class.vcg::Arity3.base" = type { %"class.vcg::face::BitFlags.base" }
%"class.vcg::face::BitFlags.base" = type <{ %"class.vcg::Arity2", i32 }>
%"class.vcg::Arity2" = type { %"class.vcg::face::VertexRef" }
%"class.vcg::face::VertexRef" = type { %"class.vcg::Arity1", [3 x ptr] }
%"class.vcg::Arity1" = type { %"class.vcg::face::InfoOcf" }
%"class.vcg::face::InfoOcf" = type { ptr }

; Function Attrs: mustprogress nounwind uwtable
define linkonce_odr void @_ZN3vcg6Point3IfEC2Efff(ptr noundef nonnull align 4 dereferenceable(12) %0, float noundef %1, float noundef %2, float noundef %3) unnamed_addr #4 comdat align 2 {
  %5 = alloca ptr, align 8
  %6 = alloca float, align 4
  %7 = alloca float, align 4
  %8 = alloca float, align 4
  store ptr %0, ptr %5, align 8
  store float %1, ptr %6, align 4
  store float %2, ptr %7, align 4
  store float %3, ptr %8, align 4
  %9 = load ptr, ptr %5, align 8
  %10 = load float, ptr %6, align 4
  %11 = getelementptr inbounds %"class.vcg::Point3", ptr %9, i32 0, i32 0
  %12 = getelementptr inbounds [3 x float], ptr %11, i64 0, i64 0
  store float %10, ptr %12, align 4
  %13 = load float, ptr %7, align 4
  %14 = getelementptr inbounds %"class.vcg::Point3", ptr %9, i32 0, i32 0
  %15 = getelementptr inbounds [3 x float], ptr %14, i64 0, i64 1
  store float %13, ptr %15, align 4
  %16 = load float, ptr %8, align 4
  %17 = getelementptr inbounds %"class.vcg::Point3", ptr %9, i32 0, i32 0
  %18 = getelementptr inbounds [3 x float], ptr %17, i64 0, i64 2
  store float %16, ptr %18, align 4
  ret void
}

; Function Attrs: mustprogress nounwind uwtable
define linkonce_odr noundef float @_ZN3vcg4math4SqrtEf(float noundef %0) #4 comdat {
  %2 = alloca float, align 4
  store float %0, ptr %2, align 4
  %3 = load float, ptr %2, align 4
  %4 = call float @sqrtf(float noundef %3) #3
  ret float %4
}

; Function Attrs: mustprogress nounwind uwtable
define linkonce_odr noundef nonnull align 4 dereferenceable(12) ptr @_ZN3vcg6Point3IfE9NormalizeEv(ptr noundef nonnull align 4 dereferenceable(12) %0) #4 comdat align 2 {
  %2 = alloca ptr, align 8
  %3 = alloca float, align 4
  store ptr %0, ptr %2, align 8
  %4 = load ptr, ptr %2, align 8
  %5 = getelementptr inbounds %"class.vcg::Point3", ptr %4, i32 0, i32 0
  %6 = getelementptr inbounds [3 x float], ptr %5, i64 0, i64 0
  %7 = load float, ptr %6, align 4
  %8 = getelementptr inbounds %"class.vcg::Point3", ptr %4, i32 0, i32 0
  %9 = getelementptr inbounds [3 x float], ptr %8, i64 0, i64 0
  %10 = load float, ptr %9, align 4
  %11 = getelementptr inbounds %"class.vcg::Point3", ptr %4, i32 0, i32 0
  %12 = getelementptr inbounds [3 x float], ptr %11, i64 0, i64 1
  %13 = load float, ptr %12, align 4
  %14 = getelementptr inbounds %"class.vcg::Point3", ptr %4, i32 0, i32 0
  %15 = getelementptr inbounds [3 x float], ptr %14, i64 0, i64 1
  %16 = load float, ptr %15, align 4
  %17 = fmul float %13, %16
  %18 = call float @llvm.fmuladd.f32(float %7, float %10, float %17)
  %19 = getelementptr inbounds %"class.vcg::Point3", ptr %4, i32 0, i32 0
  %20 = getelementptr inbounds [3 x float], ptr %19, i64 0, i64 2
  %21 = load float, ptr %20, align 4
  %22 = getelementptr inbounds %"class.vcg::Point3", ptr %4, i32 0, i32 0
  %23 = getelementptr inbounds [3 x float], ptr %22, i64 0, i64 2
  %24 = load float, ptr %23, align 4
  %25 = call float @llvm.fmuladd.f32(float %21, float %24, float %18)
  %26 = call noundef float @_ZN3vcg4math4SqrtEf(float noundef %25)
  store float %26, ptr %3, align 4
  %27 = load float, ptr %3, align 4
  %28 = fcmp ogt float %27, 0.000000e+00
  br i1 %28, label %29, label %45

29:                                               ; preds = %1
  %30 = load float, ptr %3, align 4
  %31 = getelementptr inbounds %"class.vcg::Point3", ptr %4, i32 0, i32 0
  %32 = getelementptr inbounds [3 x float], ptr %31, i64 0, i64 0
  %33 = load float, ptr %32, align 4
  %34 = fdiv float %33, %30
  store float %34, ptr %32, align 4
  %35 = load float, ptr %3, align 4
  %36 = getelementptr inbounds %"class.vcg::Point3", ptr %4, i32 0, i32 0
  %37 = getelementptr inbounds [3 x float], ptr %36, i64 0, i64 1
  %38 = load float, ptr %37, align 4
  %39 = fdiv float %38, %35
  store float %39, ptr %37, align 4
  %40 = load float, ptr %3, align 4
  %41 = getelementptr inbounds %"class.vcg::Point3", ptr %4, i32 0, i32 0
  %42 = getelementptr inbounds [3 x float], ptr %41, i64 0, i64 2
  %43 = load float, ptr %42, align 4
  %44 = fdiv float %43, %40
  store float %44, ptr %42, align 4
  br label %45

45:                                               ; preds = %29, %1
  ret ptr %4
}

; Function Attrs: mustprogress uwtable
define linkonce_odr { <2 x float>, float } @_ZNK3vcg6Point3IfEdvEf(ptr noundef nonnull align 4 dereferenceable(12) %0, float noundef %1) #5 comdat align 2 {
  %3 = alloca %"class.vcg::Point3", align 4
  %4 = alloca ptr, align 8
  %5 = alloca float, align 4
  %6 = alloca { <2 x float>, float }, align 8
  store ptr %0, ptr %4, align 8
  store float %1, ptr %5, align 4
  %7 = load ptr, ptr %4, align 8
  %8 = getelementptr inbounds %"class.vcg::Point3", ptr %7, i32 0, i32 0
  %9 = getelementptr inbounds [3 x float], ptr %8, i64 0, i64 0
  %10 = load float, ptr %9, align 4
  %11 = load float, ptr %5, align 4
  %12 = fdiv float %10, %11
  %13 = getelementptr inbounds %"class.vcg::Point3", ptr %7, i32 0, i32 0
  %14 = getelementptr inbounds [3 x float], ptr %13, i64 0, i64 1
  %15 = load float, ptr %14, align 4
  %16 = load float, ptr %5, align 4
  %17 = fdiv float %15, %16
  %18 = getelementptr inbounds %"class.vcg::Point3", ptr %7, i32 0, i32 0
  %19 = getelementptr inbounds [3 x float], ptr %18, i64 0, i64 2
  %20 = load float, ptr %19, align 4
  %21 = load float, ptr %5, align 4
  %22 = fdiv float %20, %21
  call void @_ZN3vcg6Point3IfEC2Efff(ptr noundef nonnull align 4 dereferenceable(12) %3, float noundef %12, float noundef %17, float noundef %22)
  %23 = getelementptr inbounds %"class.vcg::Point3", ptr %3, i32 0, i32 0
  call void @llvm.memcpy.p0.p0.i64(ptr align 8 %6, ptr align 4 %23, i64 12, i1 false)
  %24 = load { <2 x float>, float }, ptr %6, align 8
  ret { <2 x float>, float } %24
}

; Function Attrs: mustprogress uwtable
define linkonce_odr noundef float @_ZNK3vcg6Point3IfE4NormEv(ptr noundef nonnull align 4 dereferenceable(12) %0) #5 comdat align 2 {
  %2 = alloca ptr, align 8
  store ptr %0, ptr %2, align 8
  %3 = load ptr, ptr %2, align 8
  %4 = getelementptr inbounds %"class.vcg::Point3", ptr %3, i32 0, i32 0
  %5 = getelementptr inbounds [3 x float], ptr %4, i64 0, i64 0
  %6 = load float, ptr %5, align 4
  %7 = getelementptr inbounds %"class.vcg::Point3", ptr %3, i32 0, i32 0
  %8 = getelementptr inbounds [3 x float], ptr %7, i64 0, i64 0
  %9 = load float, ptr %8, align 4
  %10 = getelementptr inbounds %"class.vcg::Point3", ptr %3, i32 0, i32 0
  %11 = getelementptr inbounds [3 x float], ptr %10, i64 0, i64 1
  %12 = load float, ptr %11, align 4
  %13 = getelementptr inbounds %"class.vcg::Point3", ptr %3, i32 0, i32 0
  %14 = getelementptr inbounds [3 x float], ptr %13, i64 0, i64 1
  %15 = load float, ptr %14, align 4
  %16 = fmul float %12, %15
  %17 = call float @llvm.fmuladd.f32(float %6, float %9, float %16)
  %18 = getelementptr inbounds %"class.vcg::Point3", ptr %3, i32 0, i32 0
  %19 = getelementptr inbounds [3 x float], ptr %18, i64 0, i64 2
  %20 = load float, ptr %19, align 4
  %21 = getelementptr inbounds %"class.vcg::Point3", ptr %3, i32 0, i32 0
  %22 = getelementptr inbounds [3 x float], ptr %21, i64 0, i64 2
  %23 = load float, ptr %22, align 4
  %24 = call float @llvm.fmuladd.f32(float %20, float %23, float %17)
  %25 = call noundef float @_ZN3vcg4math4SqrtEf(float noundef %24)
  ret float %25
}

; Function Attrs: mustprogress nounwind uwtable
define linkonce_odr noundef nonnull align 4 dereferenceable(4) ptr @_ZN3vcg6Point3IfEixEi(ptr noundef nonnull align 4 dereferenceable(12) %0, i32 noundef %1) #4 comdat align 2 {
  %3 = alloca ptr, align 8
  %4 = alloca i32, align 4
  store ptr %0, ptr %3, align 8
  store i32 %1, ptr %4, align 4
  %5 = load ptr, ptr %3, align 8
  %6 = getelementptr inbounds %"class.vcg::Point3", ptr %5, i32 0, i32 0
  %7 = load i32, ptr %4, align 4
  %8 = sext i32 %7 to i64
  %9 = getelementptr inbounds [3 x float], ptr %6, i64 0, i64 %8
  ret ptr %9
}

; Function Attrs: mustprogress nounwind uwtable
define linkonce_odr noundef nonnull align 4 dereferenceable(12) ptr @_ZN3vcg4face9NormalAbsINS_6Point3IfEENS_6Arity3INS_8FaceBaseI11CUsedTypesOEENS0_7InfoOcfENS0_9VertexRefENS0_8BitFlagsEEEE1NEv(ptr noundef nonnull align 8 dereferenceable(48) %0) #4 comdat align 2 {
  %2 = alloca ptr, align 8
  store ptr %0, ptr %2, align 8
  %3 = load ptr, ptr %2, align 8
  %4 = getelementptr inbounds %"class.vcg::face::NormalAbs", ptr %3, i32 0, i32 1
  ret ptr %4
}

; Function Attrs: mustprogress nounwind uwtable
define linkonce_odr void @_ZN3vcg6Point3IfEC2Ev(ptr noundef nonnull align 4 dereferenceable(12) %0) unnamed_addr #4 comdat align 2 {
  %2 = alloca ptr, align 8
  store ptr %0, ptr %2, align 8
  ret void
}

; Function Attrs: mustprogress uwtable
define { <2 x float>, float } @_Z20getVelocityComponentfP6CFaceON3vcg6Point3IfEE(float noundef %0, ptr noundef %1, <2 x float> %2, float %3) #13 {
  %5 = alloca %"class.vcg::Point3", align 4
  %6 = alloca %"class.vcg::Point3", align 4
  %7 = alloca { <2 x float>, float }, align 4
  %8 = alloca float, align 4
  %9 = alloca ptr, align 8
  %10 = alloca %"class.vcg::Point3", align 4
  %11 = alloca float, align 4
  %12 = alloca %"class.vcg::Point3", align 4
  %13 = alloca %"class.vcg::Point3", align 4
  %14 = alloca { <2 x float>, float }, align 8
  %15 = alloca { <2 x float>, float }, align 8
  %16 = getelementptr inbounds { <2 x float>, float }, ptr %7, i32 0, i32 0
  store <2 x float> %2, ptr %16, align 4
  %17 = getelementptr inbounds { <2 x float>, float }, ptr %7, i32 0, i32 1
  store float %3, ptr %17, align 4
  call void @llvm.memcpy.p0.p0.i64(ptr align 4 %6, ptr align 4 %7, i64 12, i1 false)
  store float %0, ptr %8, align 4
  store ptr %1, ptr %9, align 8
  call void @_ZN3vcg6Point3IfEC2Ev(ptr noundef nonnull align 4 dereferenceable(12) %5)
  %18 = load ptr, ptr %9, align 8
  %19 = call noundef nonnull align 4 dereferenceable(12) ptr @_ZN3vcg4face9NormalAbsINS_6Point3IfEENS_6Arity3INS_8FaceBaseI11CUsedTypesOEENS0_7InfoOcfENS0_9VertexRefENS0_8BitFlagsEEEE1NEv(ptr noundef nonnull align 8 dereferenceable(48) %18)
  call void @llvm.memcpy.p0.p0.i64(ptr align 4 %10, ptr align 4 %19, i64 12, i1 false)
  %20 = call noundef nonnull align 4 dereferenceable(4) ptr @_ZN3vcg6Point3IfEixEi(ptr noundef nonnull align 4 dereferenceable(12) %10, i32 noundef 0)
  %21 = load float, ptr %20, align 4
  %22 = call noundef nonnull align 4 dereferenceable(4) ptr @_ZN3vcg6Point3IfEixEi(ptr noundef nonnull align 4 dereferenceable(12) %6, i32 noundef 0)
  %23 = load float, ptr %22, align 4
  %24 = call noundef nonnull align 4 dereferenceable(4) ptr @_ZN3vcg6Point3IfEixEi(ptr noundef nonnull align 4 dereferenceable(12) %10, i32 noundef 1)
  %25 = load float, ptr %24, align 4
  %26 = call noundef nonnull align 4 dereferenceable(4) ptr @_ZN3vcg6Point3IfEixEi(ptr noundef nonnull align 4 dereferenceable(12) %6, i32 noundef 1)
  %27 = load float, ptr %26, align 4
  %28 = fmul float %25, %27
  %29 = call float @llvm.fmuladd.f32(float %21, float %23, float %28)
  %30 = call noundef nonnull align 4 dereferenceable(4) ptr @_ZN3vcg6Point3IfEixEi(ptr noundef nonnull align 4 dereferenceable(12) %10, i32 noundef 2)
  %31 = load float, ptr %30, align 4
  %32 = call noundef nonnull align 4 dereferenceable(4) ptr @_ZN3vcg6Point3IfEixEi(ptr noundef nonnull align 4 dereferenceable(12) %6, i32 noundef 2)
  %33 = load float, ptr %32, align 4
  %34 = call float @llvm.fmuladd.f32(float %31, float %33, float %29)
  store float %34, ptr %11, align 4
  call void @_ZN3vcg6Point3IfEC2Ev(ptr noundef nonnull align 4 dereferenceable(12) %12)
  %35 = call noundef nonnull align 4 dereferenceable(4) ptr @_ZN3vcg6Point3IfEixEi(ptr noundef nonnull align 4 dereferenceable(12) %6, i32 noundef 0)
  %36 = load float, ptr %35, align 4
  %37 = load float, ptr %11, align 4
  %38 = call noundef nonnull align 4 dereferenceable(4) ptr @_ZN3vcg6Point3IfEixEi(ptr noundef nonnull align 4 dereferenceable(12) %10, i32 noundef 0)
  %39 = load float, ptr %38, align 4
  %40 = fneg float %37
  %41 = call float @llvm.fmuladd.f32(float %40, float %39, float %36)
  %42 = call noundef nonnull align 4 dereferenceable(4) ptr @_ZN3vcg6Point3IfEixEi(ptr noundef nonnull align 4 dereferenceable(12) %12, i32 noundef 0)
  store float %41, ptr %42, align 4
  %43 = call noundef nonnull align 4 dereferenceable(4) ptr @_ZN3vcg6Point3IfEixEi(ptr noundef nonnull align 4 dereferenceable(12) %6, i32 noundef 1)
  %44 = load float, ptr %43, align 4
  %45 = load float, ptr %11, align 4
  %46 = call noundef nonnull align 4 dereferenceable(4) ptr @_ZN3vcg6Point3IfEixEi(ptr noundef nonnull align 4 dereferenceable(12) %10, i32 noundef 1)
  %47 = load float, ptr %46, align 4
  %48 = fneg float %45
  %49 = call float @llvm.fmuladd.f32(float %48, float %47, float %44)
  %50 = call noundef nonnull align 4 dereferenceable(4) ptr @_ZN3vcg6Point3IfEixEi(ptr noundef nonnull align 4 dereferenceable(12) %12, i32 noundef 1)
  store float %49, ptr %50, align 4
  %51 = call noundef nonnull align 4 dereferenceable(4) ptr @_ZN3vcg6Point3IfEixEi(ptr noundef nonnull align 4 dereferenceable(12) %6, i32 noundef 2)
  %52 = load float, ptr %51, align 4
  %53 = load float, ptr %11, align 4
  %54 = call noundef nonnull align 4 dereferenceable(4) ptr @_ZN3vcg6Point3IfEixEi(ptr noundef nonnull align 4 dereferenceable(12) %10, i32 noundef 2)
  %55 = load float, ptr %54, align 4
  %56 = fneg float %53
  %57 = call float @llvm.fmuladd.f32(float %56, float %55, float %52)
  %58 = call noundef nonnull align 4 dereferenceable(4) ptr @_ZN3vcg6Point3IfEixEi(ptr noundef nonnull align 4 dereferenceable(12) %12, i32 noundef 2)
  store float %57, ptr %58, align 4
  %59 = call noundef float @_ZNK3vcg6Point3IfE4NormEv(ptr noundef nonnull align 4 dereferenceable(12) %12)
  %60 = call { <2 x float>, float } @_ZNK3vcg6Point3IfEdvEf(ptr noundef nonnull align 4 dereferenceable(12) %12, float noundef %59)
  %61 = getelementptr inbounds %"class.vcg::Point3", ptr %13, i32 0, i32 0
  store { <2 x float>, float } %60, ptr %14, align 8
  call void @llvm.memcpy.p0.p0.i64(ptr align 4 %61, ptr align 8 %14, i64 12, i1 false)
  call void @llvm.memcpy.p0.p0.i64(ptr align 4 %5, ptr align 4 %13, i64 12, i1 false)
  %62 = call noundef nonnull align 4 dereferenceable(12) ptr @_ZN3vcg6Point3IfE9NormalizeEv(ptr noundef nonnull align 4 dereferenceable(12) %5)
  %63 = load float, ptr %8, align 4
  %64 = call noundef nonnull align 4 dereferenceable(4) ptr @_ZN3vcg6Point3IfEixEi(ptr noundef nonnull align 4 dereferenceable(12) %12, i32 noundef 0)
  %65 = load float, ptr %64, align 4
  %66 = fmul float %63, %65
  %67 = call noundef nonnull align 4 dereferenceable(4) ptr @_ZN3vcg6Point3IfEixEi(ptr noundef nonnull align 4 dereferenceable(12) %5, i32 noundef 0)
  store float %66, ptr %67, align 4
  %68 = load float, ptr %8, align 4
  %69 = call noundef nonnull align 4 dereferenceable(4) ptr @_ZN3vcg6Point3IfEixEi(ptr noundef nonnull align 4 dereferenceable(12) %12, i32 noundef 1)
  %70 = load float, ptr %69, align 4
  %71 = fmul float %68, %70
  %72 = call noundef nonnull align 4 dereferenceable(4) ptr @_ZN3vcg6Point3IfEixEi(ptr noundef nonnull align 4 dereferenceable(12) %5, i32 noundef 1)
  store float %71, ptr %72, align 4
  %73 = load float, ptr %8, align 4
  %74 = call noundef nonnull align 4 dereferenceable(4) ptr @_ZN3vcg6Point3IfEixEi(ptr noundef nonnull align 4 dereferenceable(12) %12, i32 noundef 2)
  %75 = load float, ptr %74, align 4
  %76 = fmul float %73, %75
  %77 = call noundef nonnull align 4 dereferenceable(4) ptr @_ZN3vcg6Point3IfEixEi(ptr noundef nonnull align 4 dereferenceable(12) %5, i32 noundef 2)
  store float %76, ptr %77, align 4
  %78 = getelementptr inbounds %"class.vcg::Point3", ptr %5, i32 0, i32 0
  call void @llvm.memcpy.p0.p0.i64(ptr align 8 %15, ptr align 4 %78, i64 12, i1 false)
  %79 = load { <2 x float>, float }, ptr %15, align 8
  ret { <2 x float>, float } %79
}