; Function Attrs: mustprogress nofree norecurse nosync nounwind willreturn memory(argmem: read) uwtable
define { <2 x float>, float } @_Z20getVelocityComponentfP6CFaceON3vcg6Point3IfEE(float noundef %0, ptr nocapture noundef readonly %1, <2 x float> %2, float %3) local_unnamed_addr #17 {
_ZN3vcg6Point3IfE9NormalizeEv.exit:
  %4 = extractelement <2 x float> %2, i64 0
  %5 = getelementptr inbounds i8, ptr %1, i64 36
  %.sroa.5.0..sroa_idx = getelementptr inbounds i8, ptr %1, i64 44
  %.sroa.5.0.copyload = load float, ptr %.sroa.5.0..sroa_idx, align 4
  %6 = load <2 x float>, ptr %5, align 4
  %7 = fmul <2 x float> %6, %2
  %8 = extractelement <2 x float> %7, i64 1
  %9 = extractelement <2 x float> %6, i64 0
  %10 = tail call float @llvm.fmuladd.f32(float %9, float %4, float %8)
  %11 = tail call float @llvm.fmuladd.f32(float %.sroa.5.0.copyload, float %3, float %10)
  %12 = fneg float %11
  %13 = insertelement <2 x float> poison, float %12, i64 0
  %14 = shufflevector <2 x float> %13, <2 x float> poison, <2 x i32> zeroinitializer
  %15 = tail call <2 x float> @llvm.fmuladd.v2f32(<2 x float> %14, <2 x float> %6, <2 x float> %2)
  %16 = tail call float @llvm.fmuladd.f32(float %12, float %.sroa.5.0.copyload, float %3)
  %17 = insertelement <2 x float> poison, float %0, i64 0
  %18 = shufflevector <2 x float> %17, <2 x float> poison, <2 x i32> zeroinitializer
  %19 = fmul <2 x float> %15, %18
  %20 = fmul float %16, %0
  %.fca.0.insert = insertvalue { <2 x float>, float } poison, <2 x float> %19, 0
  %.fca.1.insert = insertvalue { <2 x float>, float } %.fca.0.insert, float %20, 1
  ret { <2 x float>, float } %.fca.1.insert
}